target datalayout = "e-m:e-p270:32:32-p271:32:32-p272:64:64-i64:64-i128:128-f80:128-n8:16:32:64-S128"
target triple = "x86_64-pc-linux-gnu"

%"class.clang::Stmt" = type { %union.anon }
%union.anon = type { %"class.clang::Stmt::PseudoObjectExprBitfields" }
%"class.clang::Stmt::PseudoObjectExprBitfields" = type { i64 }
%"class.clang::Expr" = type { %"class.clang::ValueStmt", %"class.clang::QualType" }
%"class.clang::ValueStmt" = type { %"class.clang::Stmt" }
%"class.clang::QualType" = type { %"class.llvm::PointerIntPair" }
%"class.llvm::PointerIntPair" = type { %"struct.llvm::detail::PunnedPointer" }
%"struct.llvm::detail::PunnedPointer" = type { [8 x i8] }
%"class.clang::SourceLocation" = type { i32 }
%"class.clang::Stmt::ExprBitfields" = type <{ i8, i16, i8 }>
%"class.clang::UnaryExprOrTypeTraitExpr" = type { %"class.clang::Expr", %union.anon.722, %"class.clang::SourceLocation", %"class.clang::SourceLocation" }
%union.anon.722 = type { ptr }

@_ZN5clang4Stmt17StatisticsEnabledE = external global i8, align 1

; Function Attrs: mustprogress nounwind uwtable
define linkonce_odr hidden noundef nonnull align 8 dereferenceable(8) ptr @_ZN4llvm6detail13PunnedPointerINS_12PointerUnionIJPKN5clang4TypeEPKNS3_8ExtQualsEEEEEaSEl(ptr noundef nonnull align 8 dereferenceable(8) %0, i64 noundef %1) #0 comdat align 2 {
  %3 = alloca ptr, align 8
  %4 = alloca i64, align 8
  store ptr %0, ptr %3, align 8
  store i64 %1, ptr %4, align 8
  %5 = load ptr, ptr %3, align 8
  %6 = getelementptr inbounds nuw %"struct.llvm::detail::PunnedPointer", ptr %5, i32 0, i32 0
  %7 = getelementptr inbounds [8 x i8], ptr %6, i64 0, i64 0
  call void @llvm.memcpy.p0.p0.i64(ptr align 8 %7, ptr align 8 %4, i64 8, i1 false)
  ret ptr %5
}

; Function Attrs: mustprogress nounwind uwtable
define linkonce_odr hidden void @_ZN4llvm6detail13PunnedPointerINS_12PointerUnionIJPKN5clang4TypeEPKNS3_8ExtQualsEEEEEC2El(ptr noundef nonnull align 8 dereferenceable(8) %0, i64 noundef %1) unnamed_addr #0 comdat align 2 {
  %3 = alloca ptr, align 8
  %4 = alloca i64, align 8
  store ptr %0, ptr %3, align 8
  store i64 %1, ptr %4, align 8
  %5 = load ptr, ptr %3, align 8
  %6 = load i64, ptr %4, align 8
  %7 = call noundef nonnull align 8 dereferenceable(8) ptr @_ZN4llvm6detail13PunnedPointerINS_12PointerUnionIJPKN5clang4TypeEPKNS3_8ExtQualsEEEEEaSEl(ptr noundef nonnull align 8 dereferenceable(8) %5, i64 noundef %6)
  ret void
}

; Function Attrs: mustprogress nounwind uwtable
define linkonce_odr hidden void @_ZN4llvm14PointerIntPairINS_12PointerUnionIJPKN5clang4TypeEPKNS2_8ExtQualsEEEELj3EjNS_21PointerLikeTypeTraitsIS9_EENS_18PointerIntPairInfoIS9_Lj3ESB_EEEC2Ev(ptr noundef nonnull align 8 dereferenceable(8) %0) unnamed_addr #0 comdat align 2 {
  %2 = alloca ptr, align 8
  store ptr %0, ptr %2, align 8
  %3 = load ptr, ptr %2, align 8
  %4 = getelementptr inbounds nuw %"class.llvm::PointerIntPair", ptr %3, i32 0, i32 0
  call void @_ZN4llvm6detail13PunnedPointerINS_12PointerUnionIJPKN5clang4TypeEPKNS3_8ExtQualsEEEEEC2El(ptr noundef nonnull align 8 dereferenceable(8) %4, i64 noundef 0)
  ret void
}

; Function Attrs: mustprogress nounwind uwtable
define linkonce_odr hidden void @_ZN5clang4StmtC2ENS0_9StmtClassE(ptr noundef nonnull align 8 dereferenceable(8) %0, i32 noundef %1) unnamed_addr #0 comdat align 2 {
  %3 = alloca ptr, align 8
  %4 = alloca i32, align 4
  store ptr %0, ptr %3, align 8
  store i32 %1, ptr %4, align 4
  %5 = load ptr, ptr %3, align 8
  %6 = load i32, ptr %4, align 4
  %7 = getelementptr inbounds nuw %"class.clang::Stmt", ptr %5, i32 0, i32 0
  %8 = trunc i32 %6 to i8
  store i8 %8, ptr %7, align 8
  %9 = load i8, ptr @_ZN5clang4Stmt17StatisticsEnabledE, align 1
  %10 = trunc i8 %9 to i1
  br i1 %10, label %11, label %13

11:                                               ; preds = %2
  %12 = load i32, ptr %4, align 4
  call void @_ZN5clang4Stmt12addStmtClassENS0_9StmtClassE(i32 noundef %12)
  br label %13

13:                                               ; preds = %11, %2
  ret void
}

; Function Attrs: mustprogress nounwind uwtable
define linkonce_odr hidden void @_ZN5clang4Expr7setTypeENS_8QualTypeE(ptr noundef nonnull align 8 dereferenceable(16) %0, i64 %1) #0 comdat align 2 {
  %3 = alloca %"class.clang::QualType", align 8
  %4 = alloca ptr, align 8
  %5 = getelementptr inbounds nuw %"class.clang::QualType", ptr %3, i32 0, i32 0
  %6 = getelementptr inbounds nuw %"class.llvm::PointerIntPair", ptr %5, i32 0, i32 0
  %7 = getelementptr inbounds nuw %"struct.llvm::detail::PunnedPointer", ptr %6, i32 0, i32 0
  store i64 %1, ptr %7, align 8
  store ptr %0, ptr %4, align 8
  %8 = load ptr, ptr %4, align 8
  %9 = getelementptr inbounds nuw %"class.clang::Expr", ptr %8, i32 0, i32 1
  call void @llvm.memcpy.p0.p0.i64(ptr align 8 %9, ptr align 8 %3, i64 8, i1 false)
  ret void
}

; Function Attrs: mustprogress nounwind uwtable
define linkonce_odr hidden void @_ZN5clang8QualTypeC2Ev(ptr noundef nonnull align 8 dereferenceable(8) %0) unnamed_addr #0 comdat align 2 {
  %2 = alloca ptr, align 8
  store ptr %0, ptr %2, align 8
  %3 = load ptr, ptr %2, align 8
  %4 = getelementptr inbounds nuw %"class.clang::QualType", ptr %3, i32 0, i32 0
  call void @_ZN4llvm14PointerIntPairINS_12PointerUnionIJPKN5clang4TypeEPKNS2_8ExtQualsEEEELj3EjNS_21PointerLikeTypeTraitsIS9_EENS_18PointerIntPairInfoIS9_Lj3ESB_EEEC2Ev(ptr noundef nonnull align 8 dereferenceable(8) %4)
  ret void
}

; Function Attrs: mustprogress nounwind uwtable
define linkonce_odr hidden void @_ZN5clang9ValueStmtCI2NS_4StmtEENS_4Stmt9StmtClassE(ptr noundef nonnull align 8 dereferenceable(8) %0, i32 noundef %1) unnamed_addr #0 comdat align 2 {
  %3 = alloca ptr, align 8
  %4 = alloca i32, align 4
  store ptr %0, ptr %3, align 8
  store i32 %1, ptr %4, align 4
  %5 = load ptr, ptr %3, align 8
  %6 = load i32, ptr %4, align 4
  call void @_ZN5clang4StmtC2ENS0_9StmtClassE(ptr noundef nonnull align 8 dereferenceable(8) %5, i32 noundef %6)
  ret void
}

; Function Attrs: mustprogress nounwind uwtable
define linkonce_odr hidden void @_ZN5clang4Expr13setDependenceENS_19ExprDependenceScope14ExprDependenceE(ptr noundef nonnull align 8 dereferenceable(16) %0, i8 noundef zeroext %1) #0 comdat align 2 {
  %3 = alloca ptr, align 8
  %4 = alloca i8, align 1
  store ptr %0, ptr %3, align 8
  store i8 %1, ptr %4, align 1
  %5 = load ptr, ptr %3, align 8
  %6 = load i8, ptr %4, align 1
  %7 = zext i8 %6 to i32
  %8 = getelementptr inbounds nuw %"class.clang::Stmt", ptr %5, i32 0, i32 0
  %9 = getelementptr inbounds nuw %"class.clang::Stmt::ExprBitfields", ptr %8, i32 0, i32 1
  %10 = trunc i32 %7 to i16
  %11 = load i16, ptr %9, align 1
  %12 = and i16 %10, 31
  %13 = shl i16 %12, 5
  %14 = and i16 %11, -993
  %15 = or i16 %14, %13
  store i16 %15, ptr %9, align 1
  ret void
}

; Function Attrs: mustprogress nounwind uwtable
define linkonce_odr hidden void @_ZN5clang4ExprC2ENS_4Stmt9StmtClassENS_8QualTypeENS_13ExprValueKindENS_14ExprObjectKindE(ptr noundef nonnull align 8 dereferenceable(16) %0, i32 noundef %1, i64 %2, i32 noundef %3, i32 noundef %4) unnamed_addr #0 comdat align 2 {
  %6 = alloca %"class.clang::QualType", align 8
  %7 = alloca ptr, align 8
  %8 = alloca i32, align 4
  %9 = alloca i32, align 4
  %10 = alloca i32, align 4
  %11 = alloca %"class.clang::QualType", align 8
  %12 = getelementptr inbounds nuw %"class.clang::QualType", ptr %6, i32 0, i32 0
  %13 = getelementptr inbounds nuw %"class.llvm::PointerIntPair", ptr %12, i32 0, i32 0
  %14 = getelementptr inbounds nuw %"struct.llvm::detail::PunnedPointer", ptr %13, i32 0, i32 0
  store i64 %2, ptr %14, align 8
  store ptr %0, ptr %7, align 8
  store i32 %1, ptr %8, align 4
  store i32 %3, ptr %9, align 4
  store i32 %4, ptr %10, align 4
  %15 = load ptr, ptr %7, align 8
  %16 = load i32, ptr %8, align 4
  call void @_ZN5clang9ValueStmtCI2NS_4StmtEENS_4Stmt9StmtClassE(ptr noundef nonnull align 8 dereferenceable(8) %15, i32 noundef %16)
  %17 = getelementptr inbounds nuw %"class.clang::Expr", ptr %15, i32 0, i32 1
  call void @_ZN5clang8QualTypeC2Ev(ptr noundef nonnull align 8 dereferenceable(8) %17)
  %18 = getelementptr inbounds nuw %"class.clang::Stmt", ptr %15, i32 0, i32 0
  %19 = getelementptr inbounds nuw %"class.clang::Stmt::ExprBitfields", ptr %18, i32 0, i32 1
  %20 = load i16, ptr %19, align 1
  %21 = and i16 %20, -993
  %22 = or i16 %21, 0
  store i16 %22, ptr %19, align 1
  %23 = load i32, ptr %9, align 4
  %24 = getelementptr inbounds nuw %"class.clang::Stmt", ptr %15, i32 0, i32 0
  %25 = getelementptr inbounds nuw %"class.clang::Stmt::ExprBitfields", ptr %24, i32 0, i32 1
  %26 = trunc i32 %23 to i16
  %27 = load i16, ptr %25, align 1
  %28 = and i16 %26, 3
  %29 = and i16 %27, -4
  %30 = or i16 %29, %28
  store i16 %30, ptr %25, align 1
  %31 = load i32, ptr %10, align 4
  %32 = getelementptr inbounds nuw %"class.clang::Stmt", ptr %15, i32 0, i32 0
  %33 = getelementptr inbounds nuw %"class.clang::Stmt::ExprBitfields", ptr %32, i32 0, i32 1
  %34 = trunc i32 %31 to i16
  %35 = load i16, ptr %33, align 1
  %36 = and i16 %34, 7
  %37 = shl i16 %36, 2
  %38 = and i16 %35, -29
  %39 = or i16 %38, %37
  store i16 %39, ptr %33, align 1
  call void @llvm.memcpy.p0.p0.i64(ptr align 8 %11, ptr align 8 %6, i64 8, i1 false)
  %40 = getelementptr inbounds nuw %"class.clang::QualType", ptr %11, i32 0, i32 0
  %41 = getelementptr inbounds nuw %"class.llvm::PointerIntPair", ptr %40, i32 0, i32 0
  %42 = getelementptr inbounds nuw %"struct.llvm::detail::PunnedPointer", ptr %41, i32 0, i32 0
  %43 = load i64, ptr %42, align 8
  call void @_ZN5clang4Expr7setTypeENS_8QualTypeE(ptr noundef nonnull align 8 dereferenceable(16) %15, i64 %43)
  ret void
}

; Function Attrs: mustprogress nounwind uwtable
define dso_local void @_ZN5clang24UnaryExprOrTypeTraitExprC2ENS_20UnaryExprOrTypeTraitEPNS_4ExprENS_8QualTypeENS_14SourceLocationES5_(ptr noundef nonnull align 8 dereferenceable(32) %0, i32 noundef %1, ptr noundef %2, i64 %3, i32 %4, i32 %5) unnamed_addr #0 align 2 {
  %7 = alloca %"class.clang::QualType", align 8
  %8 = alloca %"class.clang::SourceLocation", align 4
  %9 = alloca %"class.clang::SourceLocation", align 4
  %10 = alloca ptr, align 8
  %11 = alloca i32, align 4
  %12 = alloca ptr, align 8
  %13 = alloca %"class.clang::QualType", align 8
  %14 = getelementptr inbounds nuw %"class.clang::QualType", ptr %7, i32 0, i32 0
  %15 = getelementptr inbounds nuw %"class.llvm::PointerIntPair", ptr %14, i32 0, i32 0
  %16 = getelementptr inbounds nuw %"struct.llvm::detail::PunnedPointer", ptr %15, i32 0, i32 0
  store i64 %3, ptr %16, align 8
  %17 = getelementptr inbounds nuw %"class.clang::SourceLocation", ptr %8, i32 0, i32 0
  store i32 %4, ptr %17, align 4
  %18 = getelementptr inbounds nuw %"class.clang::SourceLocation", ptr %9, i32 0, i32 0
  store i32 %5, ptr %18, align 4
  store ptr %0, ptr %10, align 8
  store i32 %1, ptr %11, align 4
  store ptr %2, ptr %12, align 8
  %19 = load ptr, ptr %10, align 8
  call void @llvm.memcpy.p0.p0.i64(ptr align 8 %13, ptr align 8 %7, i64 8, i1 false)
  %20 = getelementptr inbounds nuw %"class.clang::QualType", ptr %13, i32 0, i32 0
  %21 = getelementptr inbounds nuw %"class.llvm::PointerIntPair", ptr %20, i32 0, i32 0
  %22 = getelementptr inbounds nuw %"struct.llvm::detail::PunnedPointer", ptr %21, i32 0, i32 0
  %23 = load i64, ptr %22, align 8
  call void @_ZN5clang4ExprC2ENS_4Stmt9StmtClassENS_8QualTypeENS_13ExprValueKindENS_14ExprObjectKindE(ptr noundef nonnull align 8 dereferenceable(16) %19, i32 noundef 5, i64 %23, i32 noundef 0, i32 noundef 0)
  %24 = getelementptr inbounds nuw %"class.clang::UnaryExprOrTypeTraitExpr", ptr %19, i32 0, i32 2
  call void @llvm.memcpy.p0.p0.i64(ptr align 8 %24, ptr align 4 %8, i64 4, i1 false)
  %25 = getelementptr inbounds nuw %"class.clang::UnaryExprOrTypeTraitExpr", ptr %19, i32 0, i32 3
  call void @llvm.memcpy.p0.p0.i64(ptr align 4 %25, ptr align 4 %9, i64 4, i1 false)
  %26 = load i32, ptr %11, align 4
  %27 = getelementptr inbounds nuw %"class.clang::Stmt", ptr %19, i32 0, i32 0
  %28 = trunc i32 %26 to i24
  %29 = load i24, ptr %27, align 8
  %30 = and i24 %28, 7
  %31 = shl i24 %30, 18
  %32 = and i24 %29, -1835009
  %33 = or i24 %32, %31
  store i24 %33, ptr %27, align 8
  %34 = getelementptr inbounds nuw %"class.clang::Stmt", ptr %19, i32 0, i32 0
  %35 = load i24, ptr %34, align 8
  %36 = and i24 %35, -2097153
  %37 = or i24 %36, 0
  store i24 %37, ptr %34, align 8
  %38 = load ptr, ptr %12, align 8
  %39 = getelementptr inbounds nuw %"class.clang::UnaryExprOrTypeTraitExpr", ptr %19, i32 0, i32 1
  store ptr %38, ptr %39, align 8
  %40 = call noundef zeroext i8 @_ZN5clang17computeDependenceEPNS_24UnaryExprOrTypeTraitExprE(ptr noundef %19)
  call void @_ZN5clang4Expr13setDependenceENS_19ExprDependenceScope14ExprDependenceE(ptr noundef nonnull align 8 dereferenceable(16) %19, i8 noundef zeroext %40)
  ret void
}