; Function Attrs: mustprogress nounwind uwtable
define dso_local void @_ZN5clang24UnaryExprOrTypeTraitExprC2ENS_20UnaryExprOrTypeTraitEPNS_4ExprENS_8QualTypeENS_14SourceLocationES5_(ptr noundef nonnull align 8 dereferenceable(32) %0, i32 noundef %1, ptr noundef %2, i64 %3, i32 %4, i32 %5) unnamed_addr #1 align 2 {
  store i8 5, ptr %0, align 8
  %7 = load i8, ptr @_ZN5clang4Stmt17StatisticsEnabledE, align 1
  %8 = trunc i8 %7 to i1
  br i1 %8, label %9, label %_ZN5clang4ExprC2ENS_4Stmt9StmtClassENS_8QualTypeENS_13ExprValueKindENS_14ExprObjectKindE.exit

9:                                                ; preds = %6
  tail call void @_ZN5clang4Stmt12addStmtClassENS0_9StmtClassE(i32 noundef 5) #28
  br label %_ZN5clang4ExprC2ENS_4Stmt9StmtClassENS_8QualTypeENS_13ExprValueKindENS_14ExprObjectKindE.exit

_ZN5clang4ExprC2ENS_4Stmt9StmtClassENS_8QualTypeENS_13ExprValueKindENS_14ExprObjectKindE.exit: ; preds = %6, %9
  %10 = getelementptr inbounds nuw i8, ptr %0, i64 8
  %11 = getelementptr inbounds nuw i8, ptr %0, i64 1
  %12 = load i16, ptr %11, align 1
  %13 = and i16 %12, -1024
  store i16 %13, ptr %11, align 1
  store i64 %3, ptr %10, align 8
  %14 = getelementptr inbounds nuw i8, ptr %0, i64 24
  store i32 %4, ptr %14, align 8
  %15 = getelementptr inbounds nuw i8, ptr %0, i64 28
  store i32 %5, ptr %15, align 4
  %16 = trunc i32 %1 to i24
  %17 = load i24, ptr %0, align 8
  %18 = shl i24 %16, 18
  %19 = and i24 %18, 1835008
  %20 = and i24 %17, -3932161
  %21 = or disjoint i24 %20, %19
  store i24 %21, ptr %0, align 8
  %22 = getelementptr inbounds nuw i8, ptr %0, i64 16
  store ptr %2, ptr %22, align 8
  %23 = tail call noundef zeroext i8 @_ZN5clang17computeDependenceEPNS_24UnaryExprOrTypeTraitExprE(ptr noundef nonnull %0) #28
  %24 = load i16, ptr %11, align 1
  %25 = and i8 %23, 31
  %26 = zext nneg i8 %25 to i16
  %27 = shl nuw nsw i16 %26, 5
  %28 = and i16 %24, -993
  %29 = or disjoint i16 %27, %28
  store i16 %29, ptr %11, align 1
  ret void
}